target datalayout = "e-m:e-p270:32:32-p271:32:32-p272:64:64-i64:64-i128:128-f80:128-n8:16:32:64-S128"
target triple = "x86_64-pc-linux-gnu"

%"struct.std::array.0" = type { [12 x %"struct.open_spiel::tarok::Contract"] }
%"struct.open_spiel::tarok::Contract" = type <{ i32, i32, i32, i8, i8, i8, i8 }>
%"class.std::shared_ptr" = type { %"class.std::__shared_ptr" }
%"class.std::__shared_ptr" = type { ptr, %"class.std::__shared_count" }
%"class.std::__shared_count" = type { ptr }
%"class.std::vector" = type { %"struct.std::_Vector_base" }
%"struct.std::_Vector_base" = type { %"struct.std::_Vector_base<std::__cxx11::basic_string<char>, std::allocator<std::__cxx11::basic_string<char>>>::_Vector_impl" }
%"struct.std::_Vector_base<std::__cxx11::basic_string<char>, std::allocator<std::__cxx11::basic_string<char>>>::_Vector_impl" = type { %"struct.std::_Vector_base<std::__cxx11::basic_string<char>, std::allocator<std::__cxx11::basic_string<char>>>::_Vector_impl_data" }
%"struct.std::_Vector_base<std::__cxx11::basic_string<char>, std::allocator<std::__cxx11::basic_string<char>>>::_Vector_impl_data" = type { ptr, ptr, ptr }
%"class.std::vector.25" = type { %"struct.std::_Vector_base.26" }
%"struct.std::_Vector_base.26" = type { %"struct.std::_Vector_base<std::vector<long>, std::allocator<std::vector<long>>>::_Vector_impl" }
%"struct.std::_Vector_base<std::vector<long>, std::allocator<std::vector<long>>>::_Vector_impl" = type { %"struct.std::_Vector_base<std::vector<long>, std::allocator<std::vector<long>>>::_Vector_impl_data" }
%"struct.std::_Vector_base<std::vector<long>, std::allocator<std::vector<long>>>::_Vector_impl_data" = type { ptr, ptr, ptr }
%"class.std::vector.31" = type { %"struct.std::_Vector_base.32" }
%"struct.std::_Vector_base.32" = type { %"struct.std::_Vector_base<long, std::allocator<long>>::_Vector_impl" }
%"struct.std::_Vector_base<long, std::allocator<long>>::_Vector_impl" = type { %"struct.std::_Vector_base<long, std::allocator<long>>::_Vector_impl_data" }
%"struct.std::_Vector_base<long, std::allocator<long>>::_Vector_impl_data" = type { ptr, ptr, ptr }
%"class.open_spiel::tarok::TarokState" = type { %"class.open_spiel::State.base", %"class.std::shared_ptr.46", i32, i32, i32, %"class.std::vector.31", %"class.std::vector.25", %"class.std::vector.31", i32, ptr, i64, i8, i32, %"class.std::vector.25", %"class.std::vector.31", i32, %"class.std::vector" }
%"class.open_spiel::State.base" = type <{ ptr, %"class.std::shared_ptr", i32, i32, %"class.std::vector.41", i32 }>
%"class.std::vector.41" = type { %"struct.std::_Vector_base.42" }
%"struct.std::_Vector_base.42" = type { %"struct.std::_Vector_base<open_spiel::State::PlayerAction, std::allocator<open_spiel::State::PlayerAction>>::_Vector_impl" }
%"struct.std::_Vector_base<open_spiel::State::PlayerAction, std::allocator<open_spiel::State::PlayerAction>>::_Vector_impl" = type { %"struct.std::_Vector_base<open_spiel::State::PlayerAction, std::allocator<open_spiel::State::PlayerAction>>::_Vector_impl_data" }
%"struct.std::_Vector_base<open_spiel::State::PlayerAction, std::allocator<open_spiel::State::PlayerAction>>::_Vector_impl_data" = type { ptr, ptr, ptr }
%"class.std::shared_ptr.46" = type { %"class.std::__shared_ptr.47" }
%"class.std::__shared_ptr.47" = type { ptr, %"class.std::__shared_count" }
%"class.open_spiel::State" = type <{ ptr, %"class.std::shared_ptr", i32, i32, %"class.std::vector.41", i32, [4 x i8] }>

@_ZN10open_spiel5tarok9TarokGame10contracts_E = linkonce_odr global %"struct.std::array.0" zeroinitializer, comdat, align 4
@.str.48 = private unnamed_addr constant [52 x i8] c"array::at: __n (which is %zu) >= _Nm (which is %zu)\00", align 1

; Function Attrs: mustprogress nounwind uwtable
define linkonce_odr noundef ptr @_ZNKSt12__shared_ptrIKN10open_spiel5tarok9TarokGameELN9__gnu_cxx12_Lock_policyE2EE3getEv(ptr noundef nonnull align 8 dereferenceable(16) %0) #4 comdat align 2 {
  %2 = alloca ptr, align 8
  store ptr %0, ptr %2, align 8
  %3 = load ptr, ptr %2, align 8
  %4 = getelementptr inbounds nuw %"class.std::__shared_ptr.47", ptr %3, i32 0, i32 0
  %5 = load ptr, ptr %4, align 8
  ret ptr %5
}

; Function Attrs: mustprogress nounwind uwtable
define linkonce_odr noundef nonnull align 4 dereferenceable(15) ptr @_ZNSt14__array_traitsIN10open_spiel5tarok8ContractELm12EE6_S_refERA12_KS2_m(ptr noundef nonnull align 4 dereferenceable(192) %0, i64 noundef %1) #4 comdat align 2 {
  %3 = alloca ptr, align 8
  %4 = alloca i64, align 8
  store ptr %0, ptr %3, align 8
  store i64 %1, ptr %4, align 8
  %5 = load ptr, ptr %3, align 8
  %6 = load i64, ptr %4, align 8
  %7 = getelementptr inbounds [12 x %"struct.open_spiel::tarok::Contract"], ptr %5, i64 0, i64 %6
  ret ptr %7
}

; Function Attrs: mustprogress nounwind uwtable
define linkonce_odr noundef ptr @_ZNKSt19__shared_ptr_accessIKN10open_spiel5tarok9TarokGameELN9__gnu_cxx12_Lock_policyE2ELb0ELb0EE6_M_getEv(ptr noundef nonnull align 1 dereferenceable(1) %0) #4 comdat align 2 {
  %2 = alloca ptr, align 8
  store ptr %0, ptr %2, align 8
  %3 = load ptr, ptr %2, align 8
  %4 = call noundef ptr @_ZNKSt12__shared_ptrIKN10open_spiel5tarok9TarokGameELN9__gnu_cxx12_Lock_policyE2EE3getEv(ptr noundef nonnull align 8 dereferenceable(16) %3) #3
  ret ptr %4
}

; Function Attrs: mustprogress nounwind uwtable
define void @_ZN10open_spiel5tarok10TarokState23StartTricksPlayingPhaseEv(ptr noundef nonnull align 8 dereferenceable(280) %0) #4 align 2 {
  %2 = alloca ptr, align 8
  store ptr %0, ptr %2, align 8
  %3 = load ptr, ptr %2, align 8
  %4 = getelementptr inbounds nuw %"class.open_spiel::tarok::TarokState", ptr %3, i32 0, i32 3
  store i32 4, ptr %4, align 4
  %5 = getelementptr inbounds nuw %"class.open_spiel::tarok::TarokState", ptr %3, i32 0, i32 9
  %6 = load ptr, ptr %5, align 8
  %7 = getelementptr inbounds nuw %"struct.open_spiel::tarok::Contract", ptr %6, i32 0, i32 4
  %8 = load i8, ptr %7, align 1
  %9 = trunc i8 %8 to i1
  br i1 %9, label %10, label %14

10:                                               ; preds = %1
  %11 = getelementptr inbounds nuw %"class.open_spiel::tarok::TarokState", ptr %3, i32 0, i32 8
  %12 = load i32, ptr %11, align 8
  %13 = getelementptr inbounds nuw %"class.open_spiel::tarok::TarokState", ptr %3, i32 0, i32 4
  store i32 %12, ptr %13, align 8
  br label %16

14:                                               ; preds = %1
  %15 = getelementptr inbounds nuw %"class.open_spiel::tarok::TarokState", ptr %3, i32 0, i32 4
  store i32 0, ptr %15, align 8
  br label %16

16:                                               ; preds = %14, %10
  ret void
}

; Function Attrs: mustprogress uwtable
define linkonce_odr noundef nonnull align 4 dereferenceable(15) ptr @_ZNKSt5arrayIN10open_spiel5tarok8ContractELm12EE2atEm(ptr noundef nonnull align 4 dereferenceable(192) %0, i64 noundef %1) #5 comdat align 2 {
  %3 = alloca ptr, align 8
  %4 = alloca i64, align 8
  store ptr %0, ptr %3, align 8
  store i64 %1, ptr %4, align 8
  %5 = load ptr, ptr %3, align 8
  %6 = load i64, ptr %4, align 8
  %7 = icmp ult i64 %6, 12
  br i1 %7, label %8, label %12

8:                                                ; preds = %2
  %9 = getelementptr inbounds nuw %"struct.std::array.0", ptr %5, i32 0, i32 0
  %10 = load i64, ptr %4, align 8
  %11 = call noundef nonnull align 4 dereferenceable(15) ptr @_ZNSt14__array_traitsIN10open_spiel5tarok8ContractELm12EE6_S_refERA12_KS2_m(ptr noundef nonnull align 4 dereferenceable(192) %9, i64 noundef %10) #3
  br label %17

12:                                               ; preds = %2
  %13 = load i64, ptr %4, align 8
  call void (ptr, ...) @_ZSt24__throw_out_of_range_fmtPKcz(ptr noundef @.str.48, i64 noundef %13, i64 noundef 12) #18
  unreachable

14:                                               ; No predecessors!
  %15 = getelementptr inbounds nuw %"struct.std::array.0", ptr %5, i32 0, i32 0
  %16 = call noundef nonnull align 4 dereferenceable(15) ptr @_ZNSt14__array_traitsIN10open_spiel5tarok8ContractELm12EE6_S_refERA12_KS2_m(ptr noundef nonnull align 4 dereferenceable(192) %15, i64 noundef 0) #3
  br label %17

17:                                               ; preds = %14, %8
  %18 = phi ptr [ %11, %8 ], [ %16, %14 ]
  ret ptr %18
}

; Function Attrs: mustprogress nounwind uwtable
define linkonce_odr noundef ptr @_ZNKSt19__shared_ptr_accessIKN10open_spiel5tarok9TarokGameELN9__gnu_cxx12_Lock_policyE2ELb0ELb0EEptEv(ptr noundef nonnull align 1 dereferenceable(1) %0) #4 comdat align 2 {
  %2 = alloca ptr, align 8
  store ptr %0, ptr %2, align 8
  %3 = load ptr, ptr %2, align 8
  %4 = call noundef ptr @_ZNKSt19__shared_ptr_accessIKN10open_spiel5tarok9TarokGameELN9__gnu_cxx12_Lock_policyE2ELb0ELb0EE6_M_getEv(ptr noundef nonnull align 1 dereferenceable(1) %3) #3
  ret ptr %4
}

; Function Attrs: mustprogress uwtable
define void @_ZN10open_spiel5tarok10TarokState18FinishBiddingPhaseEl(ptr noundef nonnull align 8 dereferenceable(280) %0, i64 noundef %1) #5 align 2 {
  %3 = alloca ptr, align 8
  %4 = alloca i64, align 8
  store ptr %0, ptr %3, align 8
  store i64 %1, ptr %4, align 8
  %5 = load ptr, ptr %3, align 8
  %6 = getelementptr inbounds nuw %"class.open_spiel::tarok::TarokState", ptr %5, i32 0, i32 4
  %7 = load i32, ptr %6, align 8
  %8 = getelementptr inbounds nuw %"class.open_spiel::tarok::TarokState", ptr %5, i32 0, i32 8
  store i32 %7, ptr %8, align 8
  %9 = getelementptr inbounds nuw %"class.open_spiel::tarok::TarokState", ptr %5, i32 0, i32 1
  %10 = call noundef ptr @_ZNKSt19__shared_ptr_accessIKN10open_spiel5tarok9TarokGameELN9__gnu_cxx12_Lock_policyE2ELb0ELb0EEptEv(ptr noundef nonnull align 1 dereferenceable(1) %9) #3
  %11 = load i64, ptr %4, align 8
  %12 = sub nsw i64 %11, 1
  %13 = call noundef nonnull align 4 dereferenceable(15) ptr @_ZNKSt5arrayIN10open_spiel5tarok8ContractELm12EE2atEm(ptr noundef nonnull align 4 dereferenceable(192) @_ZN10open_spiel5tarok9TarokGame10contracts_E, i64 noundef %12)
  %14 = getelementptr inbounds nuw %"class.open_spiel::tarok::TarokState", ptr %5, i32 0, i32 9
  store ptr %13, ptr %14, align 8
  %15 = getelementptr inbounds nuw %"class.open_spiel::State", ptr %5, i32 0, i32 3
  %16 = load i32, ptr %15, align 4
  %17 = icmp eq i32 %16, 4
  br i1 %17, label %18, label %26

18:                                               ; preds = %2
  %19 = getelementptr inbounds nuw %"class.open_spiel::tarok::TarokState", ptr %5, i32 0, i32 9
  %20 = load ptr, ptr %19, align 8
  %21 = getelementptr inbounds nuw %"struct.open_spiel::tarok::Contract", ptr %20, i32 0, i32 3
  %22 = load i8, ptr %21, align 4
  %23 = trunc i8 %22 to i1
  br i1 %23, label %24, label %26

24:                                               ; preds = %18
  %25 = getelementptr inbounds nuw %"class.open_spiel::tarok::TarokState", ptr %5, i32 0, i32 3
  store i32 2, ptr %25, align 4
  br label %34

26:                                               ; preds = %18, %2
  %27 = getelementptr inbounds nuw %"class.open_spiel::tarok::TarokState", ptr %5, i32 0, i32 9
  %28 = load ptr, ptr %27, align 8
  %29 = call noundef zeroext i1 @_ZNK10open_spiel5tarok8Contract18NeedsTalonExchangeEv(ptr noundef nonnull align 4 dereferenceable(15) %28)
  br i1 %29, label %30, label %32

30:                                               ; preds = %26
  %31 = getelementptr inbounds nuw %"class.open_spiel::tarok::TarokState", ptr %5, i32 0, i32 3
  store i32 3, ptr %31, align 4
  br label %33

32:                                               ; preds = %26
  call void @_ZN10open_spiel5tarok10TarokState23StartTricksPlayingPhaseEv(ptr noundef nonnull align 8 dereferenceable(280) %5)
  br label %33

33:                                               ; preds = %32, %30
  br label %34

34:                                               ; preds = %33, %24
  ret void
}