; Function Attrs: mustprogress uwtable
define void @_ZN10open_spiel5tarok10TarokState18FinishBiddingPhaseEl(ptr noundef nonnull align 8 captures(none) dereferenceable(280) initializes((168, 172)) %0, i64 noundef %1) local_unnamed_addr #5 align 2 {
  %3 = getelementptr inbounds nuw i8, ptr %0, i64 88
  %4 = load i32, ptr %3, align 8
  %5 = getelementptr inbounds nuw i8, ptr %0, i64 168
  store i32 %4, ptr %5, align 8
  %6 = add nsw i64 %1, -1
  %7 = icmp ult i64 %6, 12
  br i1 %7, label %_ZNKSt5arrayIN10open_spiel5tarok8ContractELm12EE2atEm.exit, label %8

8:                                                ; preds = %2
  tail call void (ptr, ...) @_ZSt24__throw_out_of_range_fmtPKcz(ptr noundef nonnull @.str.48, i64 noundef %6, i64 noundef 12) #31
  unreachable

_ZNKSt5arrayIN10open_spiel5tarok8ContractELm12EE2atEm.exit: ; preds = %2
  %9 = getelementptr inbounds nuw [12 x %"struct.open_spiel::tarok::Contract"], ptr @_ZN10open_spiel5tarok9TarokGame10contracts_E, i64 0, i64 %6
  %10 = getelementptr inbounds nuw i8, ptr %0, i64 176
  store ptr %9, ptr %10, align 8
  %11 = getelementptr inbounds nuw i8, ptr %0, i64 28
  %12 = load i32, ptr %11, align 4
  %13 = icmp eq i32 %12, 4
  br i1 %13, label %14, label %20

14:                                               ; preds = %_ZNKSt5arrayIN10open_spiel5tarok8ContractELm12EE2atEm.exit
  %15 = getelementptr inbounds nuw i8, ptr %9, i64 12
  %16 = load i8, ptr %15, align 4
  %17 = trunc i8 %16 to i1
  br i1 %17, label %18, label %20

18:                                               ; preds = %14
  %19 = getelementptr inbounds nuw i8, ptr %0, i64 84
  store i32 2, ptr %19, align 4
  br label %30

20:                                               ; preds = %14, %_ZNKSt5arrayIN10open_spiel5tarok8ContractELm12EE2atEm.exit
  %21 = tail call noundef zeroext i1 @_ZNK10open_spiel5tarok8Contract18NeedsTalonExchangeEv(ptr noundef nonnull align 4 dereferenceable(15) %9)
  %22 = getelementptr inbounds nuw i8, ptr %0, i64 84
  br i1 %21, label %23, label %24

23:                                               ; preds = %20
  store i32 3, ptr %22, align 4
  br label %30

24:                                               ; preds = %20
  store i32 4, ptr %22, align 4
  %25 = load ptr, ptr %10, align 8
  %26 = getelementptr inbounds nuw i8, ptr %25, i64 13
  %27 = load i8, ptr %26, align 1
  %28 = trunc i8 %27 to i1
  %29 = load i32, ptr %5, align 8
  %.sink.i = select i1 %28, i32 %29, i32 0
  store i32 %.sink.i, ptr %3, align 8
  br label %30

30:                                               ; preds = %23, %24, %18
  ret void
}